; Function Attrs: mustprogress uwtable
define hidden void @_ZN19OpenColorIO_v2_5dev27CDLReaderColorCorrectionElt14appendMetadataERKNSt7__cxx1112basic_stringIcSt11char_traitsIcESaIcEEES8_(ptr noundef nonnull readonly align 8 captures(none) dereferenceable(128) %0, ptr noundef nonnull align 8 dereferenceable(32) %1, ptr noundef nonnull align 8 dereferenceable(32) %2) unnamed_addr #4 align 2 personality ptr @__gxx_personality_v0 {
  %4 = alloca %"class.OpenColorIO_v2_5dev::FormatMetadataImpl", align 8
  call void @llvm.lifetime.start.p0(i64 120, ptr nonnull %4) #22
  call void @_ZN19OpenColorIO_v2_5dev18FormatMetadataImplC1ERKNSt7__cxx1112basic_stringIcSt11char_traitsIcESaIcEEES8_(ptr noundef nonnull align 8 dereferenceable(120) %4, ptr noundef nonnull align 8 dereferenceable(32) %1, ptr noundef nonnull align 8 dereferenceable(32) %2)
  %5 = getelementptr inbounds nuw i8, ptr %0, i64 112
  %6 = load ptr, ptr %5, align 8, !tbaa !31
  %7 = getelementptr inbounds nuw i8, ptr %6, i64 48
  %8 = call noundef nonnull align 8 dereferenceable(24) ptr @_ZN19OpenColorIO_v2_5dev18FormatMetadataImpl19getChildrenElementsEv(ptr noundef nonnull align 8 dereferenceable(120) %7) #22
  %9 = getelementptr inbounds nuw i8, ptr %8, i64 8
  %10 = load ptr, ptr %9, align 8, !tbaa !73
  %11 = getelementptr inbounds nuw i8, ptr %8, i64 16
  %12 = load ptr, ptr %11, align 8, !tbaa !74
  %.not.i = icmp eq ptr %10, %12
  br i1 %.not.i, label %16, label %13

13:                                               ; preds = %3
  invoke void @_ZN19OpenColorIO_v2_5dev18FormatMetadataImplC1ERKS0_(ptr noundef nonnull align 8 dereferenceable(120) %10, ptr noundef nonnull align 8 dereferenceable(120) %4)
          to label %.noexc unwind label %17

.noexc:                                           ; preds = %13
  %14 = load ptr, ptr %9, align 8, !tbaa !73
  %15 = getelementptr inbounds nuw i8, ptr %14, i64 120
  store ptr %15, ptr %9, align 8, !tbaa !73
  br label %_ZNSt6vectorIN19OpenColorIO_v2_5dev18FormatMetadataImplESaIS1_EE9push_backERKS1_.exit

16:                                               ; preds = %3
  invoke void @_ZNSt6vectorIN19OpenColorIO_v2_5dev18FormatMetadataImplESaIS1_EE17_M_realloc_insertIJRKS1_EEEvN9__gnu_cxx17__normal_iteratorIPS1_S3_EEDpOT_(ptr noundef nonnull align 8 dereferenceable(24) %8, ptr %10, ptr noundef nonnull align 8 dereferenceable(120) %4)
          to label %_ZNSt6vectorIN19OpenColorIO_v2_5dev18FormatMetadataImplESaIS1_EE9push_backERKS1_.exit unwind label %17

_ZNSt6vectorIN19OpenColorIO_v2_5dev18FormatMetadataImplESaIS1_EE9push_backERKS1_.exit: ; preds = %.noexc, %16
  call void @_ZN19OpenColorIO_v2_5dev18FormatMetadataImplD1Ev(ptr noundef nonnull align 8 dereferenceable(120) %4) #22
  call void @llvm.lifetime.end.p0(i64 120, ptr nonnull %4) #22
  ret void

17:                                               ; preds = %16, %13
  %18 = landingpad { ptr, i32 }
          cleanup
  call void @_ZN19OpenColorIO_v2_5dev18FormatMetadataImplD1Ev(ptr noundef nonnull align 8 dereferenceable(120) %4) #22
  call void @llvm.lifetime.end.p0(i64 120, ptr nonnull %4) #22
  resume { ptr, i32 } %18
}